target datalayout = "e-m:e-p270:32:32-p271:32:32-p272:64:64-i64:64-i128:128-f80:128-n8:16:32:64-S128"
target triple = "x86_64-pc-linux-gnu"

%struct.rb_data_type_struct = type { ptr, %struct.anon, ptr, ptr, i64 }
%struct.anon = type { ptr, ptr, ptr, ptr, [1 x ptr] }
%struct.strscanner = type { i64, i64, i64, i64, %struct.re_registers, i64, i8 }
%struct.re_registers = type { i32, i32, ptr, ptr }
%struct.RString = type { %struct.RBasic, i64, %union.anon }
%struct.RBasic = type { i64, i64 }
%union.anon = type { %struct.anon.0 }
%struct.anon.0 = type { ptr, %union.anon.1 }
%union.anon.1 = type { i64 }
%struct.anon.2 = type { [1 x i8] }

@usascii_encindex = internal global i32 0, align 4
@utf8_encindex = internal global i32 0, align 4
@binary_encindex = internal global i32 0, align 4
@strscanner_type = internal constant %struct.rb_data_type_struct { ptr @.str.2, %struct.anon { ptr @strscan_mark, ptr @strscan_free, ptr @strscan_memsize, ptr null, [1 x ptr] zeroinitializer }, ptr null, ptr null, i64 1 }, align 8
@rb_eArgError = external global i64, align 8
@.str.66 = private unnamed_addr constant [35 x i8] c"uninitialized StringScanner object\00", align 1

; Function Attrs: inlinehint nounwind sspstrong willreturn memory(read) uwtable
define internal i64 @RB_FL_TEST_RAW(i64 noundef %0, i64 noundef %1) #11 {
  %3 = alloca i64, align 8
  %4 = alloca i64, align 8
  store i64 %0, ptr %3, align 8, !tbaa !6
  store i64 %1, ptr %4, align 8, !tbaa !6
  %5 = load i64, ptr %3, align 8, !tbaa !6
  %6 = inttoptr i64 %5 to ptr
  %7 = getelementptr inbounds nuw %struct.RBasic, ptr %6, i32 0, i32 0
  %8 = load i64, ptr %7, align 8, !tbaa !61
  %9 = load i64, ptr %4, align 8, !tbaa !6
  %10 = and i64 %8, %9
  ret i64 %10
}

; Function Attrs: inlinehint nounwind sspstrong willreturn memory(read) uwtable
define internal zeroext i1 @RB_FL_ANY_RAW(i64 noundef %0, i64 noundef %1) #11 {
  %3 = alloca i64, align 8
  %4 = alloca i64, align 8
  store i64 %0, ptr %3, align 8, !tbaa !6
  store i64 %1, ptr %4, align 8, !tbaa !6
  %5 = load i64, ptr %3, align 8, !tbaa !6
  %6 = load i64, ptr %4, align 8, !tbaa !6
  %7 = call i64 @RB_FL_TEST_RAW(i64 noundef %5, i64 noundef %6) #28
  %8 = icmp ne i64 %7, 0
  ret i1 %8
}

; Function Attrs: inlinehint nounwind sspstrong uwtable
define internal i32 @RB_ENCODING_GET_INLINED(i64 noundef %0) #4 {
  %2 = alloca i64, align 8
  %3 = alloca i64, align 8
  store i64 %0, ptr %2, align 8, !tbaa !6
  call void @llvm.lifetime.start.p0(i64 8, ptr %3) #23
  %4 = load i64, ptr %2, align 8, !tbaa !6
  %5 = call i64 @RB_FL_TEST_RAW(i64 noundef %4, i64 noundef 532676608) #28
  %6 = lshr i64 %5, 22
  store i64 %6, ptr %3, align 8, !tbaa !6
  %7 = load i64, ptr %3, align 8, !tbaa !6
  %8 = trunc i64 %7 to i32
  call void @llvm.lifetime.end.p0(i64 8, ptr %3) #23
  ret i32 %8
}

; Function Attrs: inlinehint nounwind sspstrong willreturn memory(none) uwtable
define internal i32 @rb_isdigit(i32 noundef %0) #7 {
  %2 = alloca i32, align 4
  store i32 %0, ptr %2, align 4, !tbaa !10
  %3 = load i32, ptr %2, align 4, !tbaa !10
  %4 = icmp sle i32 48, %3
  br i1 %4, label %5, label %8

5:                                                ; preds = %1
  %6 = load i32, ptr %2, align 4, !tbaa !10
  %7 = icmp sle i32 %6, 57
  br label %8

8:                                                ; preds = %5, %1
  %9 = phi i1 [ false, %1 ], [ %7, %5 ]
  %10 = zext i1 %9 to i32
  ret i32 %10
}

; Function Attrs: inlinehint nounwind sspstrong willreturn memory(read, argmem: readwrite) uwtable
define internal void @rbimpl_rstring_getmem(ptr dead_on_unwind noalias writable sret(%struct.RString) align 8 %0, i64 noundef %1) #13 {
  %3 = alloca i64, align 8
  store i64 %1, ptr %3, align 8, !tbaa !6
  %4 = load i64, ptr %3, align 8, !tbaa !6
  %5 = call zeroext i1 @RB_FL_ANY_RAW(i64 noundef %4, i64 noundef 8192) #28
  br i1 %5, label %6, label %9

6:                                                ; preds = %2
  %7 = load i64, ptr %3, align 8, !tbaa !6
  %8 = inttoptr i64 %7 to ptr
  call void @llvm.memcpy.p0.p0.i64(ptr align 8 %0, ptr align 8 %8, i64 40, i1 false), !tbaa.struct !62
  br label %20

9:                                                ; preds = %2
  %10 = load i64, ptr %3, align 8, !tbaa !6
  %11 = call i64 @RSTRING_LEN(i64 noundef %10) #28
  %12 = getelementptr inbounds nuw %struct.RString, ptr %0, i32 0, i32 1
  store i64 %11, ptr %12, align 8, !tbaa !35
  %13 = load i64, ptr %3, align 8, !tbaa !6
  %14 = inttoptr i64 %13 to ptr
  %15 = getelementptr inbounds nuw %struct.RString, ptr %14, i32 0, i32 2
  %16 = getelementptr inbounds nuw %struct.anon.2, ptr %15, i32 0, i32 0
  %17 = getelementptr inbounds [1 x i8], ptr %16, i64 0, i64 0
  %18 = getelementptr inbounds nuw %struct.RString, ptr %0, i32 0, i32 2
  %19 = getelementptr inbounds nuw %struct.anon.0, ptr %18, i32 0, i32 0
  store ptr %17, ptr %19, align 8, !tbaa !31
  br label %20

20:                                               ; preds = %9, %6
  ret void
}

; Function Attrs: inlinehint nounwind sspstrong uwtable
define internal zeroext i1 @strscan_ascii_compat_fastpath(i64 noundef %0) #4 {
  %2 = alloca i64, align 8
  %3 = alloca i32, align 4
  store i64 %0, ptr %2, align 8, !tbaa !6
  call void @llvm.lifetime.start.p0(i64 4, ptr %3) #23
  %4 = load i64, ptr %2, align 8, !tbaa !6
  %5 = call i32 @RB_ENCODING_GET_INLINED(i64 noundef %4)
  store i32 %5, ptr %3, align 4, !tbaa !10
  %6 = load i32, ptr %3, align 4, !tbaa !10
  %7 = load i32, ptr @utf8_encindex, align 4, !tbaa !10
  %8 = icmp eq i32 %6, %7
  br i1 %8, label %17, label %9

9:                                                ; preds = %1
  %10 = load i32, ptr %3, align 4, !tbaa !10
  %11 = load i32, ptr @binary_encindex, align 4, !tbaa !10
  %12 = icmp eq i32 %10, %11
  br i1 %12, label %17, label %13

13:                                               ; preds = %9
  %14 = load i32, ptr %3, align 4, !tbaa !10
  %15 = load i32, ptr @usascii_encindex, align 4, !tbaa !10
  %16 = icmp eq i32 %14, %15
  br label %17

17:                                               ; preds = %13, %9, %1
  %18 = phi i1 [ true, %9 ], [ true, %1 ], [ %16, %13 ]
  call void @llvm.lifetime.end.p0(i64 4, ptr %3) #23
  ret i1 %18
}

; Function Attrs: inlinehint nounwind sspstrong willreturn memory(none) uwtable
define internal i32 @rb_isxdigit(i32 noundef %0) #7 {
  %2 = alloca i32, align 4
  store i32 %0, ptr %2, align 4, !tbaa !10
  %3 = load i32, ptr %2, align 4, !tbaa !10
  %4 = call i32 @rb_isdigit(i32 noundef %3) #24
  %5 = icmp ne i32 %4, 0
  br i1 %5, label %20, label %6

6:                                                ; preds = %1
  %7 = load i32, ptr %2, align 4, !tbaa !10
  %8 = icmp sle i32 65, %7
  br i1 %8, label %9, label %12

9:                                                ; preds = %6
  %10 = load i32, ptr %2, align 4, !tbaa !10
  %11 = icmp sle i32 %10, 70
  br i1 %11, label %20, label %12

12:                                               ; preds = %9, %6
  %13 = load i32, ptr %2, align 4, !tbaa !10
  %14 = icmp sle i32 97, %13
  br i1 %14, label %15, label %18

15:                                               ; preds = %12
  %16 = load i32, ptr %2, align 4, !tbaa !10
  %17 = icmp sle i32 %16, 102
  br label %18

18:                                               ; preds = %15, %12
  %19 = phi i1 [ false, %12 ], [ %17, %15 ]
  br label %20

20:                                               ; preds = %18, %9, %1
  %21 = phi i1 [ true, %9 ], [ true, %1 ], [ %19, %18 ]
  %22 = zext i1 %21 to i32
  ret i32 %22
}

; Function Attrs: inlinehint nounwind sspstrong willreturn memory(read) uwtable
define internal i64 @RSTRING_LEN(i64 noundef %0) #11 {
  %2 = alloca i64, align 8
  store i64 %0, ptr %2, align 8, !tbaa !6
  %3 = load i64, ptr %2, align 8, !tbaa !6
  %4 = inttoptr i64 %3 to ptr
  %5 = getelementptr inbounds nuw %struct.RString, ptr %4, i32 0, i32 1
  %6 = load i64, ptr %5, align 8, !tbaa !35
  ret i64 %6
}

; Function Attrs: inlinehint nounwind sspstrong uwtable
define internal ptr @RSTRING_PTR(i64 noundef %0) #4 {
  %2 = alloca i64, align 8
  %3 = alloca ptr, align 8
  %4 = alloca %struct.RString, align 8
  store i64 %0, ptr %2, align 8, !tbaa !6
  call void @llvm.lifetime.start.p0(i64 8, ptr %3) #23
  %5 = load i64, ptr %2, align 8, !tbaa !6
  call void @rbimpl_rstring_getmem(ptr dead_on_unwind writable sret(%struct.RString) align 8 %4, i64 noundef %5) #29
  %6 = getelementptr inbounds nuw %struct.RString, ptr %4, i32 0, i32 2
  %7 = getelementptr inbounds nuw %struct.anon.0, ptr %6, i32 0, i32 0
  %8 = load ptr, ptr %7, align 8, !tbaa !31
  store ptr %8, ptr %3, align 8, !tbaa !12
  %9 = load ptr, ptr %3, align 8, !tbaa !12
  call void @llvm.lifetime.end.p0(i64 8, ptr %3) #23
  ret ptr %9
}

; Function Attrs: inlinehint nounwind sspstrong uwtable
define internal void @strscan_must_ascii_compat(i64 noundef %0) #4 {
  %2 = alloca i64, align 8
  store i64 %0, ptr %2, align 8, !tbaa !6
  %3 = load i64, ptr %2, align 8, !tbaa !6
  %4 = call zeroext i1 @strscan_ascii_compat_fastpath(i64 noundef %3)
  %5 = xor i1 %4, true
  %6 = xor i1 %5, true
  %7 = zext i1 %6 to i32
  %8 = sext i32 %7 to i64
  %9 = call i64 @llvm.expect.i64(i64 %8, i64 1)
  %10 = icmp ne i64 %9, 0
  br i1 %10, label %11, label %12

11:                                               ; preds = %1
  br label %14

12:                                               ; preds = %1
  %13 = load i64, ptr %2, align 8, !tbaa !6
  call void @rb_must_asciicompat(i64 noundef %13)
  br label %14

14:                                               ; preds = %12, %11
  ret void
}

; Function Attrs: inlinehint nounwind sspstrong willreturn memory(none) uwtable
define internal zeroext i1 @RB_NIL_P(i64 noundef %0) #7 {
  %2 = alloca i64, align 8
  store i64 %0, ptr %2, align 8, !tbaa !6
  %3 = load i64, ptr %2, align 8, !tbaa !6
  %4 = icmp eq i64 %3, 4
  ret i1 %4
}

; Function Attrs: nounwind sspstrong uwtable
define internal ptr @check_strscan(i64 noundef %0) #0 {
  %2 = alloca i64, align 8
  store i64 %0, ptr %2, align 8, !tbaa !6
  %3 = load i64, ptr %2, align 8, !tbaa !6
  %4 = call ptr @rb_check_typeddata(i64 noundef %3, ptr noundef @strscanner_type)
  ret ptr %4
}

; Function Attrs: nounwind sspstrong uwtable
define internal i64 @strscan_scan_base16_integer(i64 noundef %0) #0 {
  %2 = alloca i64, align 8
  %3 = alloca i64, align 8
  %4 = alloca ptr, align 8
  %5 = alloca i64, align 8
  %6 = alloca ptr, align 8
  %7 = alloca i64, align 8
  %8 = alloca i32, align 4
  store i64 %0, ptr %3, align 8, !tbaa !6
  call void @llvm.lifetime.start.p0(i64 8, ptr %4) #23
  call void @llvm.lifetime.start.p0(i64 8, ptr %5) #23
  store i64 0, ptr %5, align 8, !tbaa !6
  call void @llvm.lifetime.start.p0(i64 8, ptr %6) #23
  br label %9

9:                                                ; preds = %1
  %10 = load i64, ptr %3, align 8, !tbaa !6
  %11 = call ptr @check_strscan(i64 noundef %10)
  store ptr %11, ptr %6, align 8, !tbaa !15
  %12 = load ptr, ptr %6, align 8, !tbaa !15
  %13 = getelementptr inbounds nuw %struct.strscanner, ptr %12, i32 0, i32 1
  %14 = load i64, ptr %13, align 8, !tbaa !22
  %15 = call zeroext i1 @RB_NIL_P(i64 noundef %14) #24
  br i1 %15, label %16, label %18

16:                                               ; preds = %9
  %17 = load i64, ptr @rb_eArgError, align 8, !tbaa !6
  call void (i64, ptr, ...) @rb_raise(i64 noundef %17, ptr noundef @.str.66) #27
  unreachable

18:                                               ; preds = %9
  br label %19

19:                                               ; preds = %18
  br label %20

20:                                               ; preds = %19
  %21 = load ptr, ptr %6, align 8, !tbaa !15
  %22 = getelementptr inbounds nuw %struct.strscanner, ptr %21, i32 0, i32 0
  %23 = load i64, ptr %22, align 8, !tbaa !17
  %24 = and i64 %23, -2
  store i64 %24, ptr %22, align 8, !tbaa !17
  %25 = load ptr, ptr %6, align 8, !tbaa !15
  %26 = getelementptr inbounds nuw %struct.strscanner, ptr %25, i32 0, i32 1
  %27 = load i64, ptr %26, align 8, !tbaa !22
  call void @strscan_must_ascii_compat(i64 noundef %27)
  %28 = load ptr, ptr %6, align 8, !tbaa !15
  %29 = getelementptr inbounds nuw %struct.strscanner, ptr %28, i32 0, i32 1
  %30 = load i64, ptr %29, align 8, !tbaa !22
  %31 = call ptr @RSTRING_PTR(i64 noundef %30)
  %32 = load ptr, ptr %6, align 8, !tbaa !15
  %33 = getelementptr inbounds nuw %struct.strscanner, ptr %32, i32 0, i32 3
  %34 = load i64, ptr %33, align 8, !tbaa !27
  %35 = getelementptr inbounds i8, ptr %31, i64 %34
  store ptr %35, ptr %4, align 8, !tbaa !12
  call void @llvm.lifetime.start.p0(i64 8, ptr %7) #23
  %36 = load ptr, ptr %6, align 8, !tbaa !15
  %37 = getelementptr inbounds nuw %struct.strscanner, ptr %36, i32 0, i32 1
  %38 = load i64, ptr %37, align 8, !tbaa !22
  %39 = call i64 @RSTRING_LEN(i64 noundef %38) #28
  %40 = load ptr, ptr %6, align 8, !tbaa !15
  %41 = getelementptr inbounds nuw %struct.strscanner, ptr %40, i32 0, i32 3
  %42 = load i64, ptr %41, align 8, !tbaa !27
  %43 = sub nsw i64 %39, %42
  store i64 %43, ptr %7, align 8, !tbaa !6
  %44 = load i64, ptr %7, align 8, !tbaa !6
  %45 = icmp sle i64 %44, 0
  br i1 %45, label %46, label %47

46:                                               ; preds = %20
  store i64 4, ptr %2, align 8
  store i32 1, ptr %8, align 4
  br label %127

47:                                               ; preds = %20
  %48 = load ptr, ptr %4, align 8, !tbaa !12
  %49 = load i64, ptr %5, align 8, !tbaa !6
  %50 = getelementptr inbounds i8, ptr %48, i64 %49
  %51 = load i8, ptr %50, align 1, !tbaa !31
  %52 = sext i8 %51 to i32
  %53 = icmp eq i32 %52, 45
  br i1 %53, label %61, label %54

54:                                               ; preds = %47
  %55 = load ptr, ptr %4, align 8, !tbaa !12
  %56 = load i64, ptr %5, align 8, !tbaa !6
  %57 = getelementptr inbounds i8, ptr %55, i64 %56
  %58 = load i8, ptr %57, align 1, !tbaa !31
  %59 = sext i8 %58 to i32
  %60 = icmp eq i32 %59, 43
  br i1 %60, label %61, label %64

61:                                               ; preds = %54, %47
  %62 = load i64, ptr %5, align 8, !tbaa !6
  %63 = add nsw i64 %62, 1
  store i64 %63, ptr %5, align 8, !tbaa !6
  br label %64

64:                                               ; preds = %61, %54
  %65 = load i64, ptr %7, align 8, !tbaa !6
  %66 = load i64, ptr %5, align 8, !tbaa !6
  %67 = add nsw i64 %66, 2
  %68 = icmp sge i64 %65, %67
  br i1 %68, label %69, label %87

69:                                               ; preds = %64
  %70 = load ptr, ptr %4, align 8, !tbaa !12
  %71 = load i64, ptr %5, align 8, !tbaa !6
  %72 = getelementptr inbounds i8, ptr %70, i64 %71
  %73 = load i8, ptr %72, align 1, !tbaa !31
  %74 = sext i8 %73 to i32
  %75 = icmp eq i32 %74, 48
  br i1 %75, label %76, label %87

76:                                               ; preds = %69
  %77 = load ptr, ptr %4, align 8, !tbaa !12
  %78 = load i64, ptr %5, align 8, !tbaa !6
  %79 = add nsw i64 %78, 1
  %80 = getelementptr inbounds i8, ptr %77, i64 %79
  %81 = load i8, ptr %80, align 1, !tbaa !31
  %82 = sext i8 %81 to i32
  %83 = icmp eq i32 %82, 120
  br i1 %83, label %84, label %87

84:                                               ; preds = %76
  %85 = load i64, ptr %5, align 8, !tbaa !6
  %86 = add nsw i64 %85, 2
  store i64 %86, ptr %5, align 8, !tbaa !6
  br label %87

87:                                               ; preds = %84, %76, %69, %64
  %88 = load i64, ptr %5, align 8, !tbaa !6
  %89 = load i64, ptr %7, align 8, !tbaa !6
  %90 = icmp sge i64 %88, %89
  br i1 %90, label %99, label %91

91:                                               ; preds = %87
  %92 = load ptr, ptr %4, align 8, !tbaa !12
  %93 = load i64, ptr %5, align 8, !tbaa !6
  %94 = getelementptr inbounds i8, ptr %92, i64 %93
  %95 = load i8, ptr %94, align 1, !tbaa !31
  %96 = sext i8 %95 to i32
  %97 = call i32 @rb_isxdigit(i32 noundef %96) #24
  %98 = icmp ne i32 %97, 0
  br i1 %98, label %100, label %99

99:                                               ; preds = %91, %87
  store i64 4, ptr %2, align 8
  store i32 1, ptr %8, align 4
  br label %127

100:                                              ; preds = %91
  %101 = load ptr, ptr %6, align 8, !tbaa !15
  %102 = getelementptr inbounds nuw %struct.strscanner, ptr %101, i32 0, i32 3
  %103 = load i64, ptr %102, align 8, !tbaa !27
  %104 = load ptr, ptr %6, align 8, !tbaa !15
  %105 = getelementptr inbounds nuw %struct.strscanner, ptr %104, i32 0, i32 2
  store i64 %103, ptr %105, align 8, !tbaa !26
  br label %106

106:                                              ; preds = %120, %100
  %107 = load i64, ptr %5, align 8, !tbaa !6
  %108 = load i64, ptr %7, align 8, !tbaa !6
  %109 = icmp slt i64 %107, %108
  br i1 %109, label %110, label %118

110:                                              ; preds = %106
  %111 = load ptr, ptr %4, align 8, !tbaa !12
  %112 = load i64, ptr %5, align 8, !tbaa !6
  %113 = getelementptr inbounds i8, ptr %111, i64 %112
  %114 = load i8, ptr %113, align 1, !tbaa !31
  %115 = sext i8 %114 to i32
  %116 = call i32 @rb_isxdigit(i32 noundef %115) #24
  %117 = icmp ne i32 %116, 0
  br label %118

118:                                              ; preds = %110, %106
  %119 = phi i1 [ false, %106 ], [ %117, %110 ]
  br i1 %119, label %120, label %123

120:                                              ; preds = %118
  %121 = load i64, ptr %5, align 8, !tbaa !6
  %122 = add nsw i64 %121, 1
  store i64 %122, ptr %5, align 8, !tbaa !6
  br label %106, !llvm.loop !34

123:                                              ; preds = %118
  %124 = load ptr, ptr %6, align 8, !tbaa !15
  %125 = load i64, ptr %5, align 8, !tbaa !6
  %126 = call i64 @strscan_parse_integer(ptr noundef %124, i32 noundef 16, i64 noundef %125)
  store i64 %126, ptr %2, align 8
  store i32 1, ptr %8, align 4
  br label %127

127:                                              ; preds = %123, %99, %46
  call void @llvm.lifetime.end.p0(i64 8, ptr %7) #23
  call void @llvm.lifetime.end.p0(i64 8, ptr %6) #23
  call void @llvm.lifetime.end.p0(i64 8, ptr %5) #23
  call void @llvm.lifetime.end.p0(i64 8, ptr %4) #23
  %128 = load i64, ptr %2, align 8
  ret i64 %128
}