; Function Attrs: nounwind sspstrong uwtable
define internal i64 @strscan_scan_base16_integer(i64 noundef %0) #0 {
  %2 = tail call ptr @rb_check_typeddata(i64 noundef %0, ptr noundef nonnull @strscanner_type) #12
  %3 = getelementptr inbounds nuw i8, ptr %2, i64 8
  %4 = load i64, ptr %3, align 8, !tbaa !23
  %5 = icmp eq i64 %4, 4
  br i1 %5, label %6, label %8

6:                                                ; preds = %1
  %7 = load i64, ptr @rb_eArgError, align 8, !tbaa !10
  tail call void (i64, ptr, ...) @rb_raise(i64 noundef %7, ptr noundef nonnull @.str.66) #14
  unreachable

8:                                                ; preds = %1
  %9 = load i64, ptr %2, align 8, !tbaa !18
  %10 = and i64 %9, -2
  store i64 %10, ptr %2, align 8, !tbaa !18
  %11 = inttoptr i64 %4 to ptr
  %12 = load i64, ptr %11, align 8, !tbaa !34
  %13 = trunc i64 %12 to i32
  %14 = lshr i32 %13, 22
  %15 = and i32 %14, 127
  %16 = load i32, ptr @utf8_encindex, align 4, !tbaa !6
  %17 = icmp eq i32 %15, %16
  %18 = load i32, ptr @binary_encindex, align 4
  %19 = icmp eq i32 %15, %18
  %or.cond.i.i = select i1 %17, i1 true, i1 %19
  %20 = load i32, ptr @usascii_encindex, align 4
  %21 = icmp eq i32 %15, %20
  %or.cond.i = select i1 %or.cond.i.i, i1 true, i1 %21
  br i1 %or.cond.i, label %strscan_must_ascii_compat.exit, label %22, !prof !61

22:                                               ; preds = %8
  tail call void @rb_must_asciicompat(i64 noundef %4) #12
  %.pre = load i64, ptr %3, align 8, !tbaa !23
  %.phi.trans.insert = inttoptr i64 %.pre to ptr
  %.pre58 = load i64, ptr %.phi.trans.insert, align 8, !tbaa !34, !noalias !66
  br label %strscan_must_ascii_compat.exit

strscan_must_ascii_compat.exit:                   ; preds = %8, %22
  %.pre-phi = phi ptr [ %11, %8 ], [ %.phi.trans.insert, %22 ]
  %23 = phi i64 [ %12, %8 ], [ %.pre58, %22 ]
  %24 = and i64 %23, 8192
  %.not.i.i = icmp eq i64 %24, 0
  %25 = getelementptr inbounds nuw i8, ptr %.pre-phi, i64 24
  br i1 %.not.i.i, label %RSTRING_PTR.exit, label %26

26:                                               ; preds = %strscan_must_ascii_compat.exit
  %.sroa.2.0.copyload.i = load ptr, ptr %25, align 8
  br label %RSTRING_PTR.exit

RSTRING_PTR.exit:                                 ; preds = %strscan_must_ascii_compat.exit, %26
  %.sroa.2.0.i = phi ptr [ %.sroa.2.0.copyload.i, %26 ], [ %25, %strscan_must_ascii_compat.exit ]
  %27 = getelementptr inbounds nuw i8, ptr %2, i64 24
  %28 = load i64, ptr %27, align 8, !tbaa !29
  %29 = getelementptr inbounds i8, ptr %.sroa.2.0.i, i64 %28
  %30 = getelementptr inbounds nuw i8, ptr %.pre-phi, i64 16
  %31 = load i64, ptr %30, align 8, !tbaa !32
  %32 = sub nsw i64 %31, %28
  %33 = icmp slt i64 %32, 1
  br i1 %33, label %66, label %34

34:                                               ; preds = %RSTRING_PTR.exit
  %35 = load i8, ptr %29, align 1, !tbaa !54
  %36 = add i8 %35, -43
  %switch.and = and i8 %36, -3
  %switch.selectcmp = icmp eq i8 %switch.and, 0
  %37 = zext i1 %switch.selectcmp to i64
  %38 = or disjoint i64 %37, 2
  %.not = icmp samesign ult i64 %32, %38
  br i1 %.not, label %47, label %39

39:                                               ; preds = %34
  %40 = getelementptr inbounds nuw i8, ptr %29, i64 %37
  %41 = load i8, ptr %40, align 1, !tbaa !54
  %42 = icmp eq i8 %41, 48
  br i1 %42, label %43, label %47

43:                                               ; preds = %39
  %44 = getelementptr inbounds nuw i8, ptr %40, i64 1
  %45 = load i8, ptr %44, align 1, !tbaa !54
  %46 = icmp eq i8 %45, 120
  %spec.select = select i1 %46, i64 %38, i64 %37
  br label %47

47:                                               ; preds = %43, %39, %34
  %.1 = phi i64 [ %37, %39 ], [ %37, %34 ], [ %spec.select, %43 ]
  %.not38 = icmp samesign ult i64 %.1, %32
  br i1 %.not38, label %48, label %66

48:                                               ; preds = %47
  %49 = getelementptr inbounds nuw i8, ptr %29, i64 %.1
  %50 = load i8, ptr %49, align 1, !tbaa !54
  %.fr = freeze i8 %50
  %51 = sext i8 %.fr to i32
  %52 = add nsw i32 %51, -58
  %53 = icmp ult i32 %52, -10
  br i1 %53, label %switch.early.test, label %54

switch.early.test:                                ; preds = %48
  switch i8 %.fr, label %66 [
    i8 102, label %54
    i8 101, label %54
    i8 100, label %54
    i8 99, label %54
    i8 98, label %54
    i8 97, label %54
    i8 70, label %54
    i8 69, label %54
    i8 68, label %54
    i8 67, label %54
    i8 66, label %54
    i8 65, label %54
  ]

54:                                               ; preds = %switch.early.test, %switch.early.test, %switch.early.test, %switch.early.test, %switch.early.test, %switch.early.test, %switch.early.test, %switch.early.test, %switch.early.test, %switch.early.test, %switch.early.test, %switch.early.test, %48
  %55 = getelementptr inbounds nuw i8, ptr %2, i64 16
  store i64 %28, ptr %55, align 8, !tbaa !28
  %56 = icmp samesign ult i64 %.1, %32
  br i1 %56, label %.lr.ph, label %.critedge

.lr.ph:                                           ; preds = %54, %62
  %.252 = phi i64 [ %63, %62 ], [ %.1, %54 ]
  %57 = getelementptr inbounds i8, ptr %29, i64 %.252
  %58 = load i8, ptr %57, align 1, !tbaa !54
  %.fr57 = freeze i8 %58
  %59 = sext i8 %.fr57 to i32
  %60 = add nsw i32 %59, -58
  %61 = icmp ult i32 %60, -10
  br i1 %61, label %switch.early.test51, label %62

switch.early.test51:                              ; preds = %.lr.ph
  switch i8 %.fr57, label %.critedge [
    i8 102, label %62
    i8 101, label %62
    i8 100, label %62
    i8 99, label %62
    i8 98, label %62
    i8 97, label %62
    i8 70, label %62
    i8 69, label %62
    i8 68, label %62
    i8 67, label %62
    i8 66, label %62
    i8 65, label %62
  ]

62:                                               ; preds = %switch.early.test51, %switch.early.test51, %switch.early.test51, %switch.early.test51, %switch.early.test51, %switch.early.test51, %switch.early.test51, %switch.early.test51, %switch.early.test51, %switch.early.test51, %switch.early.test51, %switch.early.test51, %.lr.ph
  %63 = add nuw nsw i64 %.252, 1
  %64 = icmp slt i64 %63, %32
  br i1 %64, label %.lr.ph, label %.critedge, !llvm.loop !69

.critedge:                                        ; preds = %62, %switch.early.test51, %54
  %.2.lcssa = phi i64 [ %.1, %54 ], [ %.252, %switch.early.test51 ], [ %32, %62 ]
  %65 = tail call fastcc i64 @strscan_parse_integer(ptr noundef nonnull %2, i32 noundef 16, i64 noundef %.2.lcssa)
  br label %66

66:                                               ; preds = %switch.early.test, %47, %RSTRING_PTR.exit, %.critedge
  %.0 = phi i64 [ %65, %.critedge ], [ 4, %RSTRING_PTR.exit ], [ 4, %switch.early.test ], [ 4, %47 ]
  ret i64 %.0
}